target datalayout = "e-m:e-p270:32:32-p271:32:32-p272:64:64-i64:64-i128:128-f80:128-n8:16:32:64-S128"
target triple = "x86_64-pc-linux-gnu"

%"class.cv::Mat_" = type { %"class.cv::Mat" }
%"class.cv::Mat" = type { i32, i32, i32, i32, ptr, ptr, ptr, ptr, ptr, ptr, %"struct.cv::MatSize", %"struct.cv::MatStep" }
%"struct.cv::MatSize" = type { ptr }
%"struct.cv::MatStep" = type { ptr, [2 x i64] }
%"class.cv::Range" = type { i32, i32 }
%"class.cv::ParallelLoopBody" = type { ptr }
%"struct.cv::optflow::DivergenceBody" = type { %"class.cv::ParallelLoopBody", %"class.cv::Mat_", %"class.cv::Mat_", %"class.cv::Mat_" }

; Function Attrs: inlinehint mustprogress nounwind uwtable
define linkonce_odr hidden noundef ptr @_ZN2cv4Mat_IfEixEi(ptr noundef nonnull align 8 dereferenceable(96) %0, i32 noundef %1) #6 comdat align 2 {
  %3 = alloca ptr, align 8
  %4 = alloca i32, align 4
  store ptr %0, ptr %3, align 8, !tbaa !86
  store i32 %1, ptr %4, align 4, !tbaa !55
  %5 = load ptr, ptr %3, align 8
  %6 = getelementptr inbounds nuw %"class.cv::Mat", ptr %5, i32 0, i32 4
  %7 = load ptr, ptr %6, align 8, !tbaa !112
  %8 = load i32, ptr %4, align 4, !tbaa !55
  %9 = sext i32 %8 to i64
  %10 = getelementptr inbounds nuw %"class.cv::Mat", ptr %5, i32 0, i32 11
  %11 = getelementptr inbounds nuw %"struct.cv::MatStep", ptr %10, i32 0, i32 0
  %12 = load ptr, ptr %11, align 8, !tbaa !113
  %13 = getelementptr inbounds i64, ptr %12, i64 0
  %14 = load i64, ptr %13, align 8, !tbaa !81
  %15 = mul i64 %9, %14
  %16 = getelementptr inbounds nuw i8, ptr %7, i64 %15
  ret ptr %16
}

; Function Attrs: inlinehint mustprogress nounwind uwtable
define linkonce_odr hidden noundef ptr @_ZNK2cv4Mat_IfEixEi(ptr noundef nonnull align 8 dereferenceable(96) %0, i32 noundef %1) #6 comdat align 2 {
  %3 = alloca ptr, align 8
  %4 = alloca i32, align 4
  store ptr %0, ptr %3, align 8, !tbaa !86
  store i32 %1, ptr %4, align 4, !tbaa !55
  %5 = load ptr, ptr %3, align 8
  %6 = getelementptr inbounds nuw %"class.cv::Mat", ptr %5, i32 0, i32 4
  %7 = load ptr, ptr %6, align 8, !tbaa !112
  %8 = load i32, ptr %4, align 4, !tbaa !55
  %9 = sext i32 %8 to i64
  %10 = getelementptr inbounds nuw %"class.cv::Mat", ptr %5, i32 0, i32 11
  %11 = getelementptr inbounds nuw %"struct.cv::MatStep", ptr %10, i32 0, i32 0
  %12 = load ptr, ptr %11, align 8, !tbaa !113
  %13 = getelementptr inbounds i64, ptr %12, i64 0
  %14 = load i64, ptr %13, align 8, !tbaa !81
  %15 = mul i64 %9, %14
  %16 = getelementptr inbounds nuw i8, ptr %7, i64 %15
  ret ptr %16
}

; Function Attrs: mustprogress uwtable
define hidden void @_ZNK2cv7optflow14DivergenceBodyclERKNS_5RangeE(ptr noundef nonnull align 8 dereferenceable(296) %0, ptr noundef nonnull align 4 dereferenceable(8) %1) unnamed_addr #4 align 2 {
  %3 = alloca ptr, align 8
  %4 = alloca ptr, align 8
  %5 = alloca i32, align 4
  %6 = alloca i32, align 4
  %7 = alloca ptr, align 8
  %8 = alloca ptr, align 8
  %9 = alloca ptr, align 8
  %10 = alloca ptr, align 8
  %11 = alloca i32, align 4
  %12 = alloca float, align 4
  %13 = alloca float, align 4
  store ptr %0, ptr %3, align 8, !tbaa !122
  store ptr %1, ptr %4, align 8, !tbaa !103
  %14 = load ptr, ptr %3, align 8
  call void @llvm.lifetime.start.p0(i64 4, ptr %5) #3
  %15 = load ptr, ptr %4, align 8, !tbaa !103
  %16 = getelementptr inbounds nuw %"class.cv::Range", ptr %15, i32 0, i32 0
  %17 = load i32, ptr %16, align 4, !tbaa !105
  store i32 %17, ptr %5, align 4, !tbaa !55
  br label %18

18:                                               ; preds = %81, %2
  %19 = load i32, ptr %5, align 4, !tbaa !55
  %20 = load ptr, ptr %4, align 8, !tbaa !103
  %21 = getelementptr inbounds nuw %"class.cv::Range", ptr %20, i32 0, i32 1
  %22 = load i32, ptr %21, align 4, !tbaa !107
  %23 = icmp slt i32 %19, %22
  br i1 %23, label %25, label %24

24:                                               ; preds = %18
  store i32 2, ptr %6, align 4
  call void @llvm.lifetime.end.p0(i64 4, ptr %5) #3
  br label %84

25:                                               ; preds = %18
  call void @llvm.lifetime.start.p0(i64 8, ptr %7) #3
  %26 = getelementptr inbounds nuw %"struct.cv::optflow::DivergenceBody", ptr %14, i32 0, i32 1
  %27 = load i32, ptr %5, align 4, !tbaa !55
  %28 = call noundef ptr @_ZNK2cv4Mat_IfEixEi(ptr noundef nonnull align 8 dereferenceable(96) %26, i32 noundef %27)
  store ptr %28, ptr %7, align 8, !tbaa !108
  call void @llvm.lifetime.start.p0(i64 8, ptr %8) #3
  %29 = getelementptr inbounds nuw %"struct.cv::optflow::DivergenceBody", ptr %14, i32 0, i32 2
  %30 = load i32, ptr %5, align 4, !tbaa !55
  %31 = sub nsw i32 %30, 1
  %32 = call noundef ptr @_ZNK2cv4Mat_IfEixEi(ptr noundef nonnull align 8 dereferenceable(96) %29, i32 noundef %31)
  store ptr %32, ptr %8, align 8, !tbaa !108
  call void @llvm.lifetime.start.p0(i64 8, ptr %9) #3
  %33 = getelementptr inbounds nuw %"struct.cv::optflow::DivergenceBody", ptr %14, i32 0, i32 2
  %34 = load i32, ptr %5, align 4, !tbaa !55
  %35 = call noundef ptr @_ZNK2cv4Mat_IfEixEi(ptr noundef nonnull align 8 dereferenceable(96) %33, i32 noundef %34)
  store ptr %35, ptr %9, align 8, !tbaa !108
  call void @llvm.lifetime.start.p0(i64 8, ptr %10) #3
  %36 = getelementptr inbounds nuw %"struct.cv::optflow::DivergenceBody", ptr %14, i32 0, i32 3
  %37 = load i32, ptr %5, align 4, !tbaa !55
  %38 = call noundef ptr @_ZN2cv4Mat_IfEixEi(ptr noundef nonnull align 8 dereferenceable(96) %36, i32 noundef %37)
  store ptr %38, ptr %10, align 8, !tbaa !108
  call void @llvm.lifetime.start.p0(i64 4, ptr %11) #3
  store i32 1, ptr %11, align 4, !tbaa !55
  br label %39

39:                                               ; preds = %77, %25
  %40 = load i32, ptr %11, align 4, !tbaa !55
  %41 = getelementptr inbounds nuw %"struct.cv::optflow::DivergenceBody", ptr %14, i32 0, i32 1
  %42 = getelementptr inbounds nuw %"class.cv::Mat", ptr %41, i32 0, i32 3
  %43 = load i32, ptr %42, align 4, !tbaa !56
  %44 = icmp slt i32 %40, %43
  br i1 %44, label %46, label %45

45:                                               ; preds = %39
  store i32 5, ptr %6, align 4
  call void @llvm.lifetime.end.p0(i64 4, ptr %11) #3
  br label %80

46:                                               ; preds = %39
  call void @llvm.lifetime.start.p0(i64 4, ptr %12) #3
  %47 = load ptr, ptr %7, align 8, !tbaa !108
  %48 = load i32, ptr %11, align 4, !tbaa !55
  %49 = sext i32 %48 to i64
  %50 = getelementptr inbounds float, ptr %47, i64 %49
  %51 = load float, ptr %50, align 4, !tbaa !91
  %52 = load ptr, ptr %7, align 8, !tbaa !108
  %53 = load i32, ptr %11, align 4, !tbaa !55
  %54 = sub nsw i32 %53, 1
  %55 = sext i32 %54 to i64
  %56 = getelementptr inbounds float, ptr %52, i64 %55
  %57 = load float, ptr %56, align 4, !tbaa !91
  %58 = fsub float %51, %57
  store float %58, ptr %12, align 4, !tbaa !91
  call void @llvm.lifetime.start.p0(i64 4, ptr %13) #3
  %59 = load ptr, ptr %9, align 8, !tbaa !108
  %60 = load i32, ptr %11, align 4, !tbaa !55
  %61 = sext i32 %60 to i64
  %62 = getelementptr inbounds float, ptr %59, i64 %61
  %63 = load float, ptr %62, align 4, !tbaa !91
  %64 = load ptr, ptr %8, align 8, !tbaa !108
  %65 = load i32, ptr %11, align 4, !tbaa !55
  %66 = sext i32 %65 to i64
  %67 = getelementptr inbounds float, ptr %64, i64 %66
  %68 = load float, ptr %67, align 4, !tbaa !91
  %69 = fsub float %63, %68
  store float %69, ptr %13, align 4, !tbaa !91
  %70 = load float, ptr %12, align 4, !tbaa !91
  %71 = load float, ptr %13, align 4, !tbaa !91
  %72 = fadd float %70, %71
  %73 = load ptr, ptr %10, align 8, !tbaa !108
  %74 = load i32, ptr %11, align 4, !tbaa !55
  %75 = sext i32 %74 to i64
  %76 = getelementptr inbounds float, ptr %73, i64 %75
  store float %72, ptr %76, align 4, !tbaa !91
  call void @llvm.lifetime.end.p0(i64 4, ptr %13) #3
  call void @llvm.lifetime.end.p0(i64 4, ptr %12) #3
  br label %77

77:                                               ; preds = %46
  %78 = load i32, ptr %11, align 4, !tbaa !55
  %79 = add nsw i32 %78, 1
  store i32 %79, ptr %11, align 4, !tbaa !55
  br label %39, !llvm.loop !124

80:                                               ; preds = %45
  call void @llvm.lifetime.end.p0(i64 8, ptr %10) #3
  call void @llvm.lifetime.end.p0(i64 8, ptr %9) #3
  call void @llvm.lifetime.end.p0(i64 8, ptr %8) #3
  call void @llvm.lifetime.end.p0(i64 8, ptr %7) #3
  br label %81

81:                                               ; preds = %80
  %82 = load i32, ptr %5, align 4, !tbaa !55
  %83 = add nsw i32 %82, 1
  store i32 %83, ptr %5, align 4, !tbaa !55
  br label %18, !llvm.loop !125

84:                                               ; preds = %24
  ret void
}