; Function Attrs: mustprogress nofree norecurse nosync nounwind memory(readwrite, inaccessiblemem: none) uwtable
define hidden void @_ZNK2cv7optflow14DivergenceBodyclERKNS_5RangeE(ptr noundef nonnull readonly align 8 captures(none) dereferenceable(296) %0, ptr noundef nonnull readonly align 4 captures(none) dereferenceable(8) %1) unnamed_addr #7 align 2 {
  %3 = load i32, ptr %1, align 4, !tbaa !95
  %4 = getelementptr inbounds nuw i8, ptr %1, i64 4
  %5 = load i32, ptr %4, align 4, !tbaa !97
  %6 = icmp slt i32 %3, %5
  br i1 %6, label %.lr.ph26, label %._crit_edge27

.lr.ph26:                                         ; preds = %2
  %7 = getelementptr inbounds nuw i8, ptr %0, i64 24
  %8 = load ptr, ptr %7, align 8, !tbaa !98
  %9 = getelementptr inbounds nuw i8, ptr %0, i64 80
  %10 = load ptr, ptr %9, align 8, !tbaa !99
  %11 = load i64, ptr %10, align 8, !tbaa !100
  %12 = getelementptr inbounds nuw i8, ptr %0, i64 120
  %13 = load ptr, ptr %12, align 8, !tbaa !98
  %14 = getelementptr inbounds nuw i8, ptr %0, i64 176
  %15 = load ptr, ptr %14, align 8, !tbaa !99
  %16 = load i64, ptr %15, align 8, !tbaa !100
  %17 = getelementptr inbounds nuw i8, ptr %0, i64 216
  %18 = load ptr, ptr %17, align 8, !tbaa !98
  %19 = getelementptr inbounds nuw i8, ptr %0, i64 272
  %20 = load ptr, ptr %19, align 8, !tbaa !99
  %21 = load i64, ptr %20, align 8, !tbaa !100
  %22 = getelementptr inbounds nuw i8, ptr %0, i64 20
  %23 = load i32, ptr %22, align 4, !tbaa !71
  %24 = icmp sgt i32 %23, 1
  br i1 %24, label %.lr.ph.us.preheader, label %._crit_edge27

.lr.ph.us.preheader:                              ; preds = %.lr.ph26
  %25 = sext i32 %3 to i64
  %wide.trip.count33 = sext i32 %5 to i64
  %wide.trip.count = zext nneg i32 %23 to i64
  br label %.lr.ph.us

.lr.ph.us:                                        ; preds = %.lr.ph.us.preheader, %._crit_edge.us
  %indvars.iv30 = phi i64 [ %25, %.lr.ph.us.preheader ], [ %indvars.iv.next31, %._crit_edge.us ]
  %26 = mul i64 %11, %indvars.iv30
  %27 = getelementptr inbounds nuw i8, ptr %8, i64 %26
  %28 = add nsw i64 %indvars.iv30, -1
  %29 = mul i64 %16, %28
  %30 = getelementptr inbounds nuw i8, ptr %13, i64 %29
  %31 = mul i64 %16, %indvars.iv30
  %32 = getelementptr inbounds nuw i8, ptr %13, i64 %31
  %33 = mul i64 %21, %indvars.iv30
  %34 = getelementptr inbounds nuw i8, ptr %18, i64 %33
  br label %35

35:                                               ; preds = %.lr.ph.us, %35
  %indvars.iv = phi i64 [ 1, %.lr.ph.us ], [ %indvars.iv.next, %35 ]
  %36 = getelementptr inbounds nuw float, ptr %27, i64 %indvars.iv
  %37 = load float, ptr %36, align 4, !tbaa !101
  %38 = getelementptr i8, ptr %36, i64 -4
  %39 = load float, ptr %38, align 4, !tbaa !101
  %40 = fsub float %37, %39
  %41 = getelementptr inbounds nuw float, ptr %32, i64 %indvars.iv
  %42 = load float, ptr %41, align 4, !tbaa !101
  %43 = getelementptr inbounds nuw float, ptr %30, i64 %indvars.iv
  %44 = load float, ptr %43, align 4, !tbaa !101
  %45 = fsub float %42, %44
  %46 = fadd float %40, %45
  %47 = getelementptr inbounds nuw float, ptr %34, i64 %indvars.iv
  store float %46, ptr %47, align 4, !tbaa !101
  %indvars.iv.next = add nuw nsw i64 %indvars.iv, 1
  %exitcond.not = icmp eq i64 %indvars.iv.next, %wide.trip.count
  br i1 %exitcond.not, label %._crit_edge.us, label %35, !llvm.loop !123

._crit_edge.us:                                   ; preds = %35
  %indvars.iv.next31 = add nsw i64 %indvars.iv30, 1
  %exitcond34.not = icmp eq i64 %indvars.iv.next31, %wide.trip.count33
  br i1 %exitcond34.not, label %._crit_edge27, label %.lr.ph.us, !llvm.loop !124

._crit_edge27:                                    ; preds = %._crit_edge.us, %.lr.ph26, %2
  ret void
}